; Function Attrs: nounwind uwtable
define internal fastcc range(i32 0, 2) i32 @loadCursorTheme() unnamed_addr #0 {
  %1 = tail call ptr @getenv(ptr noundef nonnull @.str.354) #9
  %.not = icmp eq ptr %1, null
  br i1 %.not, label %10, label %2

2:                                                ; preds = %0
  %3 = tail call ptr @__errno_location() #10
  store i32 0, ptr %3, align 4, !tbaa !95
  %4 = tail call i64 @strtol(ptr noundef nonnull captures(none) %1, ptr noundef null, i32 noundef 10) #9
  %5 = load i32, ptr %3, align 4, !tbaa !95
  %6 = icmp eq i32 %5, 0
  %7 = add i64 %4, -1
  %8 = icmp ult i64 %7, 2147483646
  %or.cond3 = select i1 %6, i1 %8, i1 false
  %9 = trunc nuw nsw i64 %4 to i32
  %spec.select = select i1 %or.cond3, i32 %9, i32 16
  br label %10

10:                                               ; preds = %2, %0
  %.012 = phi i32 [ %spec.select, %2 ], [ 16, %0 ]
  %11 = tail call ptr @getenv(ptr noundef nonnull @.str.355) #9
  %12 = load ptr, ptr getelementptr inbounds nuw (i8, ptr @_glfw, i64 137544), align 8, !tbaa !120
  %13 = load ptr, ptr getelementptr inbounds nuw (i8, ptr @_glfw, i64 133920), align 8, !tbaa !184
  %14 = tail call ptr %12(ptr noundef %11, i32 noundef %.012, ptr noundef %13) #9
  store ptr %14, ptr getelementptr inbounds nuw (i8, ptr @_glfw, i64 134096), align 8, !tbaa !190
  %.not15 = icmp eq ptr %14, null
  br i1 %.not15, label %15, label %16

15:                                               ; preds = %10
  tail call void (i32, ptr, ...) @_glfwInputError(i32 noundef 65544, ptr noundef nonnull @.str.356) #9
  br label %27

16:                                               ; preds = %10
  %17 = load ptr, ptr getelementptr inbounds nuw (i8, ptr @_glfw, i64 137544), align 8, !tbaa !120
  %18 = shl nuw nsw i32 %.012, 1
  %19 = load ptr, ptr getelementptr inbounds nuw (i8, ptr @_glfw, i64 133920), align 8, !tbaa !184
  %20 = tail call ptr %17(ptr noundef %11, i32 noundef %18, ptr noundef %19) #9
  store ptr %20, ptr getelementptr inbounds nuw (i8, ptr @_glfw, i64 134104), align 8, !tbaa !191
  %21 = load ptr, ptr getelementptr inbounds nuw (i8, ptr @_glfw, i64 133904), align 8, !tbaa !198
  %22 = load ptr, ptr getelementptr inbounds nuw (i8, ptr @_glfw, i64 137528), align 8, !tbaa !118
  %23 = load ptr, ptr getelementptr inbounds nuw (i8, ptr @_glfw, i64 137520), align 8, !tbaa !117
  %24 = tail call i32 %23(ptr noundef %21) #9
  %25 = tail call ptr (ptr, i32, ptr, i32, i32, ...) %22(ptr noundef %21, i32 noundef 0, ptr noundef nonnull @_glfw_wl_surface_interface, i32 noundef %24, i32 noundef 0, ptr noundef null) #9
  store ptr %25, ptr getelementptr inbounds nuw (i8, ptr @_glfw, i64 134112), align 8, !tbaa !194
  %26 = tail call i32 @timerfd_create(i32 noundef 1, i32 noundef 526336) #9
  store i32 %26, ptr getelementptr inbounds nuw (i8, ptr @_glfw, i64 134128), align 8, !tbaa !98
  br label %27

27:                                               ; preds = %16, %15
  %.0 = phi i32 [ 1, %16 ], [ 0, %15 ]
  ret i32 %.0
}